; Function Attrs: mustprogress uwtable
define internal fastcc void @_ZN12_GLOBAL__N_119InvokeParseAbslOnlyILi3EEEvRAT__PKc(ptr noundef nonnull align 8 dereferenceable(24) %0) unnamed_addr #3 personality ptr @__gxx_personality_v0 {
  %2 = alloca %"class.std::vector", align 8
  %3 = alloca %"class.std::vector.166", align 8
  call void @llvm.lifetime.start.p0(i64 24, ptr nonnull %2) #33
  call void @llvm.memset.p0.i64(ptr noundef nonnull align 8 dereferenceable(24) %2, i8 0, i64 24, i1 false)
  call void @llvm.lifetime.start.p0(i64 24, ptr nonnull %3) #33
  call void @llvm.memset.p0.i64(ptr noundef nonnull align 8 dereferenceable(24) %3, i8 0, i64 24, i1 false)
  invoke void @_ZN4absl20ParseAbseilFlagsOnlyEiPPcRSt6vectorIS0_SaIS0_EERS2_INS_16UnrecognizedFlagESaIS6_EE(i32 noundef 2, ptr noundef nonnull %0, ptr noundef nonnull align 8 dereferenceable(24) %2, ptr noundef nonnull align 8 dereferenceable(24) %3)
          to label %4 unwind label %32

4:                                                ; preds = %1
  %5 = load ptr, ptr %3, align 8, !tbaa !394
  %6 = getelementptr inbounds nuw i8, ptr %3, i64 8
  %7 = load ptr, ptr %6, align 8, !tbaa !397
  %.not4.i.i.i.i = icmp eq ptr %5, %7
  br i1 %.not4.i.i.i.i, label %_ZSt8_DestroyIPN4absl16UnrecognizedFlagES1_EvT_S3_RSaIT0_E.exit.i, label %.lr.ph.i.i.i.i

.lr.ph.i.i.i.i:                                   ; preds = %4, %_ZSt8_DestroyIN4absl16UnrecognizedFlagEEvPT_.exit.i.i.i.i
  %.05.i.i.i.i = phi ptr [ %17, %_ZSt8_DestroyIN4absl16UnrecognizedFlagEEvPT_.exit.i.i.i.i ], [ %5, %4 ]
  %8 = getelementptr inbounds nuw i8, ptr %.05.i.i.i.i, i64 8
  %9 = load ptr, ptr %8, align 8, !tbaa !16
  %10 = getelementptr inbounds nuw i8, ptr %.05.i.i.i.i, i64 24
  %11 = icmp eq ptr %9, %10
  br i1 %11, label %_ZNKSt7__cxx1112basic_stringIcSt11char_traitsIcESaIcEE11_M_is_localEv.exit.thread.i.i.i.i.i.i.i.i, label %_ZNKSt7__cxx1112basic_stringIcSt11char_traitsIcESaIcEE11_M_is_localEv.exit.i.i.i.i.i.i.i.i

_ZNKSt7__cxx1112basic_stringIcSt11char_traitsIcESaIcEE11_M_is_localEv.exit.thread.i.i.i.i.i.i.i.i: ; preds = %.lr.ph.i.i.i.i
  %12 = getelementptr inbounds nuw i8, ptr %.05.i.i.i.i, i64 16
  %13 = load i64, ptr %12, align 8, !tbaa !19
  %14 = icmp ult i64 %13, 16
  call void @llvm.assume(i1 %14)
  br label %_ZSt8_DestroyIN4absl16UnrecognizedFlagEEvPT_.exit.i.i.i.i

_ZNKSt7__cxx1112basic_stringIcSt11char_traitsIcESaIcEE11_M_is_localEv.exit.i.i.i.i.i.i.i.i: ; preds = %.lr.ph.i.i.i.i
  %15 = load i64, ptr %10, align 8, !tbaa !21
  %16 = add i64 %15, 1
  call void @_ZdlPvm(ptr noundef %9, i64 noundef %16) #32
  br label %_ZSt8_DestroyIN4absl16UnrecognizedFlagEEvPT_.exit.i.i.i.i

_ZSt8_DestroyIN4absl16UnrecognizedFlagEEvPT_.exit.i.i.i.i: ; preds = %_ZNKSt7__cxx1112basic_stringIcSt11char_traitsIcESaIcEE11_M_is_localEv.exit.i.i.i.i.i.i.i.i, %_ZNKSt7__cxx1112basic_stringIcSt11char_traitsIcESaIcEE11_M_is_localEv.exit.thread.i.i.i.i.i.i.i.i
  %17 = getelementptr inbounds nuw i8, ptr %.05.i.i.i.i, i64 40
  %.not.i.i.i.i = icmp eq ptr %17, %7
  br i1 %.not.i.i.i.i, label %_ZSt8_DestroyIPN4absl16UnrecognizedFlagES1_EvT_S3_RSaIT0_E.exitthread-pre-split.i, label %.lr.ph.i.i.i.i, !llvm.loop !398

_ZSt8_DestroyIPN4absl16UnrecognizedFlagES1_EvT_S3_RSaIT0_E.exitthread-pre-split.i: ; preds = %_ZSt8_DestroyIN4absl16UnrecognizedFlagEEvPT_.exit.i.i.i.i
  %.pr.i = load ptr, ptr %3, align 8, !tbaa !394
  br label %_ZSt8_DestroyIPN4absl16UnrecognizedFlagES1_EvT_S3_RSaIT0_E.exit.i

_ZSt8_DestroyIPN4absl16UnrecognizedFlagES1_EvT_S3_RSaIT0_E.exit.i: ; preds = %_ZSt8_DestroyIPN4absl16UnrecognizedFlagES1_EvT_S3_RSaIT0_E.exitthread-pre-split.i, %4
  %18 = phi ptr [ %.pr.i, %_ZSt8_DestroyIPN4absl16UnrecognizedFlagES1_EvT_S3_RSaIT0_E.exitthread-pre-split.i ], [ %5, %4 ]
  %.not.i.i.i = icmp eq ptr %18, null
  br i1 %.not.i.i.i, label %_ZNSt6vectorIN4absl16UnrecognizedFlagESaIS1_EED2Ev.exit, label %19

19:                                               ; preds = %_ZSt8_DestroyIPN4absl16UnrecognizedFlagES1_EvT_S3_RSaIT0_E.exit.i
  %20 = getelementptr inbounds nuw i8, ptr %3, i64 16
  %21 = load ptr, ptr %20, align 8, !tbaa !399
  %22 = ptrtoint ptr %21 to i64
  %23 = ptrtoint ptr %18 to i64
  %24 = sub i64 %22, %23
  call void @_ZdlPvm(ptr noundef nonnull %18, i64 noundef %24) #32
  br label %_ZNSt6vectorIN4absl16UnrecognizedFlagESaIS1_EED2Ev.exit

_ZNSt6vectorIN4absl16UnrecognizedFlagESaIS1_EED2Ev.exit: ; preds = %_ZSt8_DestroyIPN4absl16UnrecognizedFlagES1_EvT_S3_RSaIT0_E.exit.i, %19
  call void @llvm.lifetime.end.p0(i64 24, ptr nonnull %3) #33
  %25 = load ptr, ptr %2, align 8, !tbaa !54
  %.not.i.i.i2 = icmp eq ptr %25, null
  br i1 %.not.i.i.i2, label %_ZNSt6vectorIPcSaIS0_EED2Ev.exit, label %26

26:                                               ; preds = %_ZNSt6vectorIN4absl16UnrecognizedFlagESaIS1_EED2Ev.exit
  %27 = getelementptr inbounds nuw i8, ptr %2, i64 16
  %28 = load ptr, ptr %27, align 8, !tbaa !67
  %29 = ptrtoint ptr %28 to i64
  %30 = ptrtoint ptr %25 to i64
  %31 = sub i64 %29, %30
  call void @_ZdlPvm(ptr noundef nonnull %25, i64 noundef %31) #32
  br label %_ZNSt6vectorIPcSaIS0_EED2Ev.exit

_ZNSt6vectorIPcSaIS0_EED2Ev.exit:                 ; preds = %_ZNSt6vectorIN4absl16UnrecognizedFlagESaIS1_EED2Ev.exit, %26
  call void @llvm.lifetime.end.p0(i64 24, ptr nonnull %2) #33
  ret void

32:                                               ; preds = %1
  %33 = landingpad { ptr, i32 }
          cleanup
  call void @_ZNSt6vectorIN4absl16UnrecognizedFlagESaIS1_EED2Ev(ptr noundef nonnull align 8 dereferenceable(24) %3) #33
  call void @llvm.lifetime.end.p0(i64 24, ptr nonnull %3) #33
  %34 = load ptr, ptr %2, align 8, !tbaa !54
  %.not.i.i.i3 = icmp eq ptr %34, null
  br i1 %.not.i.i.i3, label %_ZNSt6vectorIPcSaIS0_EED2Ev.exit4, label %35

35:                                               ; preds = %32
  %36 = getelementptr inbounds nuw i8, ptr %2, i64 16
  %37 = load ptr, ptr %36, align 8, !tbaa !67
  %38 = ptrtoint ptr %37 to i64
  %39 = ptrtoint ptr %34 to i64
  %40 = sub i64 %38, %39
  call void @_ZdlPvm(ptr noundef nonnull %34, i64 noundef %40) #32
  br label %_ZNSt6vectorIPcSaIS0_EED2Ev.exit4

_ZNSt6vectorIPcSaIS0_EED2Ev.exit4:                ; preds = %32, %35
  call void @llvm.lifetime.end.p0(i64 24, ptr nonnull %2) #33
  resume { ptr, i32 } %33
}